(lp0
S'SCIENCE-FICTION'
p1
aS'SPECULATIVE-FICTION'
p2
aS'FICTION'
p3
aS'NOVEL'
p4
aS'FANTASY'
p5
aS"CHILDREN'S-LITERATURE"
p6
aS'HUMOUR'
p7
aS'SATIRE'
p8
aS'HISTORICAL-FICTION'
p9
aS'HISTORY'
p10
aS'MYSTERY'
p11
aS'SUSPENSE'
p12
aS'ADVENTURE-NOVEL'
p13
aS'SPY-FICTION'
p14
aS'AUTOBIOGRAPHY'
p15
aS'HORROR'
p16
aS'THRILLER'
p17
aS'ROMANCE-NOVEL'
p18
aS'COMEDY'
p19
aS'NOVELLA'
p20
aS'WAR-NOVEL'
p21
aS'DYSTOPIA'
p22
aS'COMIC-NOVEL'
p23
aS'DETECTIVE-FICTION'
p24
aS'HISTORICAL-NOVEL'
p25
aS'BIOGRAPHY'
p26
aS'MEMOIR'
p27
aS'NON-FICTION'
p28
aS'CRIME-FICTION'
p29
aS'AUTOBIOGRAPHICAL-NOVEL'
p30
aS'ALTERNATE-HISTORY'
p31
aS'TECHNO-THRILLER'
p32
aS'UTOPIAN-AND-DYSTOPIAN-FICTION'
p33
aS'YOUNG-ADULT-LITERATURE'
p34
aS'SHORT-STORY'
p35
aS'GOTHIC-FICTION'
p36
aS'APOCALYPTIC-AND-POST-APOCALYPTIC-FICTION'
p37
aS'HIGH-FANTASY'
p38
a.